; Function Attrs: mustprogress nofree nounwind willreturn memory(write, argmem: readwrite) uwtable
define dso_local void @_ZN14btAngularLimit4testEf(ptr nocapture noundef nonnull align 4 dereferenceable(29) %this, float noundef %angle) local_unnamed_addr #7 align 2 {
entry:
  %m_correction = getelementptr inbounds i8, ptr %this, i64 20
  %m_sign = getelementptr inbounds i8, ptr %this, i64 24
  %m_solveLimit = getelementptr inbounds i8, ptr %this, i64 28
  %m_halfRange = getelementptr inbounds i8, ptr %this, i64 4
  tail call void @llvm.memset.p0.i64(ptr noundef nonnull align 4 dereferenceable(9) %m_correction, i8 0, i64 9, i1 false)
  %0 = load float, ptr %m_halfRange, align 4
  %cmp = fcmp ult float %0, 0.000000e+00
  br i1 %cmp, label %if.end19, label %if.then

if.then:                                          ; preds = %entry
  %1 = load float, ptr %this, align 4
  %sub = fsub float %angle, %1
  %call.i.i = tail call noundef float @fmodf(float noundef %sub, float noundef 0x401921FB60000000) #14
  %cmp.i = fcmp olt float %call.i.i, 0xC00921FB60000000
  br i1 %cmp.i, label %if.then.i, label %if.else.i

if.then.i:                                        ; preds = %if.then
  %add.i = fadd float %call.i.i, 0x401921FB60000000
  br label %_Z16btNormalizeAnglef.exit

if.else.i:                                        ; preds = %if.then
  %cmp1.i = fcmp ogt float %call.i.i, 0x400921FB60000000
  br i1 %cmp1.i, label %if.then2.i, label %_Z16btNormalizeAnglef.exit

if.then2.i:                                       ; preds = %if.else.i
  %sub.i = fadd float %call.i.i, 0xC01921FB60000000
  br label %_Z16btNormalizeAnglef.exit

_Z16btNormalizeAnglef.exit:                       ; preds = %if.then.i, %if.else.i, %if.then2.i
  %retval.0.i = phi float [ %add.i, %if.then.i ], [ %sub.i, %if.then2.i ], [ %call.i.i, %if.else.i ]
  %2 = load float, ptr %m_halfRange, align 4
  %fneg = fneg float %2
  %cmp3 = fcmp olt float %retval.0.i, %fneg
  br i1 %cmp3, label %if.then4, label %if.else

if.then4:                                         ; preds = %_Z16btNormalizeAnglef.exit
  store i8 1, ptr %m_solveLimit, align 4
  %add = fadd float %retval.0.i, %2
  %fneg7 = fneg float %add
  br label %if.end19.sink.split

if.else:                                          ; preds = %_Z16btNormalizeAnglef.exit
  %cmp11 = fcmp ogt float %retval.0.i, %2
  br i1 %cmp11, label %if.then12, label %if.end19

if.then12:                                        ; preds = %if.else
  store i8 1, ptr %m_solveLimit, align 4
  %sub15 = fsub float %2, %retval.0.i
  br label %if.end19.sink.split

if.end19.sink.split:                              ; preds = %if.then12, %if.then4
  %fneg7.sink = phi float [ %fneg7, %if.then4 ], [ %sub15, %if.then12 ]
  %.sink = phi float [ 1.000000e+00, %if.then4 ], [ -1.000000e+00, %if.then12 ]
  store float %fneg7.sink, ptr %m_correction, align 4
  store float %.sink, ptr %m_sign, align 4
  br label %if.end19

if.end19:                                         ; preds = %if.end19.sink.split, %if.else, %entry
  ret void
}